; Function Attrs: nofree norecurse nosync nounwind memory(read, inaccessiblemem: none) uwtable
define i32 @Abc_NtkCountMuxes(ptr noundef readonly captures(none) %0) local_unnamed_addr #2 {
  %2 = getelementptr inbounds nuw i8, ptr %0, i64 32
  %3 = load ptr, ptr %2, align 8
  %4 = getelementptr i8, ptr %3, i64 4
  %.val = load i32, ptr %4, align 4
  %5 = icmp sgt i32 %.val, 0
  br i1 %5, label %.lr.ph, label %.critedge

.lr.ph:                                           ; preds = %1
  %6 = getelementptr i8, ptr %3, i64 8
  %.val11.val = load ptr, ptr %6, align 8
  %wide.trip.count = zext nneg i32 %.val to i64
  br label %7

7:                                                ; preds = %.lr.ph, %17
  %indvars.iv = phi i64 [ 0, %.lr.ph ], [ %indvars.iv.next, %17 ]
  %.014 = phi i32 [ 0, %.lr.ph ], [ %.1, %17 ]
  %8 = getelementptr inbounds nuw ptr, ptr %.val11.val, i64 %indvars.iv
  %9 = load ptr, ptr %8, align 8
  %10 = icmp eq ptr %9, null
  br i1 %10, label %17, label %11

11:                                               ; preds = %7
  %12 = getelementptr i8, ptr %9, i64 20
  %.val12 = load i32, ptr %12, align 4
  %13 = and i32 %.val12, 15
  %.not = icmp eq i32 %13, 7
  br i1 %.not, label %14, label %17

14:                                               ; preds = %11
  %15 = tail call i32 @Abc_NodeIsMuxType(ptr noundef nonnull %9)
  %16 = add nsw i32 %15, %.014
  br label %17

17:                                               ; preds = %14, %11, %7
  %.1 = phi i32 [ %.014, %7 ], [ %16, %14 ], [ %.014, %11 ]
  %indvars.iv.next = add nuw nsw i64 %indvars.iv, 1
  %exitcond.not = icmp eq i64 %indvars.iv.next, %wide.trip.count
  br i1 %exitcond.not, label %.critedge, label %7, !llvm.loop !69

.critedge:                                        ; preds = %17, %1
  %.0.lcssa = phi i32 [ 0, %1 ], [ %.1, %17 ]
  ret i32 %.0.lcssa
}